target datalayout = "e-m:e-p270:32:32-p271:32:32-p272:64:64-i64:64-i128:128-f80:128-n8:16:32:64-S128"
target triple = "x86_64-unknown-linux-gnu"

%class.btVector3 = type { [4 x float] }
%class.btAlignedObjectArray.4 = type <{ %class.btAlignedAllocator.5, [3 x i8], i32, i32, [4 x i8], ptr, i8, [7 x i8] }>
%class.btAlignedAllocator.5 = type { i8 }
%class.btReducedDeformableBodySolver = type { %class.btDeformableBodySolver.base, i8, float, float, %class.btVector3, [4 x i8], %class.btAlignedObjectArray.12, %class.btAlignedObjectArray.16, %class.btAlignedObjectArray.20 }
%class.btDeformableBodySolver.base = type <{ %class.btSoftBodySolver.base, i32, %class.btAlignedObjectArray.4, %class.btAlignedObjectArray.4, %class.btAlignedObjectArray.4, %class.btAlignedObjectArray.4, %class.btAlignedObjectArray.8, %class.btAlignedObjectArray.4, float, [4 x i8], %class.btConjugateGradient, %class.btConjugateResidual, i8, [3 x i8], i32, float, i8, i8, [2 x i8], ptr, i8 }>
%class.btSoftBodySolver.base = type <{ ptr, i32, i32, float }>
%class.btAlignedObjectArray.8 = type <{ %class.btAlignedAllocator.9, [3 x i8], i32, i32, [4 x i8], ptr, i8, [7 x i8] }>
%class.btAlignedAllocator.9 = type { i8 }
%class.btConjugateGradient = type { %class.btKrylovSolver, %class.btAlignedObjectArray.4, %class.btAlignedObjectArray.4, %class.btAlignedObjectArray.4, %class.btAlignedObjectArray.4 }
%class.btKrylovSolver = type { ptr, i32, float }
%class.btConjugateResidual = type <{ %class.btKrylovSolver, %class.btAlignedObjectArray.4, %class.btAlignedObjectArray.4, %class.btAlignedObjectArray.4, %class.btAlignedObjectArray.4, %class.btAlignedObjectArray.4, %class.btAlignedObjectArray.4, float, [4 x i8] }>
%class.btAlignedObjectArray.12 = type <{ %class.btAlignedAllocator.13, [3 x i8], i32, i32, [4 x i8], ptr, i8, [7 x i8] }>
%class.btAlignedAllocator.13 = type { i8 }
%class.btAlignedObjectArray.16 = type <{ %class.btAlignedAllocator.17, [3 x i8], i32, i32, [4 x i8], ptr, i8, [7 x i8] }>
%class.btAlignedAllocator.17 = type { i8 }
%class.btAlignedObjectArray.20 = type <{ %class.btAlignedAllocator.21, [3 x i8], i32, i32, [4 x i8], ptr, i8, [7 x i8] }>
%class.btAlignedAllocator.21 = type { i8 }
%class.btDeformableBodySolver = type <{ %class.btSoftBodySolver.base, i32, %class.btAlignedObjectArray.4, %class.btAlignedObjectArray.4, %class.btAlignedObjectArray.4, %class.btAlignedObjectArray.4, %class.btAlignedObjectArray.8, %class.btAlignedObjectArray.4, float, [4 x i8], %class.btConjugateGradient, %class.btConjugateResidual, i8, [3 x i8], i32, float, i8, i8, [2 x i8], ptr, i8, [7 x i8] }>

; Function Attrs: mustprogress nounwind uwtable
define linkonce_odr dso_local noundef nonnull align 8 dereferenceable(8) ptr @_ZN20btAlignedObjectArrayIP10btSoftBodyEixEi(ptr noundef nonnull align 8 dereferenceable(25) %this, i32 noundef %n) #1 comdat align 2 {
entry:
  %this.addr = alloca ptr, align 8
  %n.addr = alloca i32, align 4
  store ptr %this, ptr %this.addr, align 8
  store i32 %n, ptr %n.addr, align 4
  %this1 = load ptr, ptr %this.addr, align 8
  %m_data = getelementptr inbounds %class.btAlignedObjectArray.8, ptr %this1, i32 0, i32 5
  %0 = load ptr, ptr %m_data, align 8
  %1 = load i32, ptr %n.addr, align 4
  %idxprom = sext i32 %1 to i64
  %arrayidx = getelementptr inbounds ptr, ptr %0, i64 %idxprom
  ret ptr %arrayidx
}

; Function Attrs: mustprogress nounwind uwtable
define linkonce_odr dso_local noundef i32 @_ZNK20btAlignedObjectArrayIP10btSoftBodyE4sizeEv(ptr noundef nonnull align 8 dereferenceable(25) %this) #1 comdat align 2 {
entry:
  %this.addr = alloca ptr, align 8
  store ptr %this, ptr %this.addr, align 8
  %this1 = load ptr, ptr %this.addr, align 8
  %m_size = getelementptr inbounds %class.btAlignedObjectArray.8, ptr %this1, i32 0, i32 2
  %0 = load i32, ptr %m_size, align 4
  ret i32 %0
}

; Function Attrs: mustprogress uwtable
define dso_local void @_ZN29btReducedDeformableBodySolver31deformableBodyInternalWriteBackEv(ptr noundef nonnull align 8 dereferenceable(736) %this) unnamed_addr #5 align 2 {
entry:
  %this.addr = alloca ptr, align 8
  %i = alloca i32, align 4
  %rsb = alloca ptr, align 8
  store ptr %this, ptr %this.addr, align 8
  %this1 = load ptr, ptr %this.addr, align 8
  store i32 0, ptr %i, align 4
  br label %for.cond

for.cond:                                         ; preds = %for.inc, %entry
  %0 = load i32, ptr %i, align 4
  %m_softBodies = getelementptr inbounds %class.btDeformableBodySolver, ptr %this1, i32 0, i32 6
  %call = call noundef i32 @_ZNK20btAlignedObjectArrayIP10btSoftBodyE4sizeEv(ptr noundef nonnull align 8 dereferenceable(25) %m_softBodies)
  %cmp = icmp slt i32 %0, %call
  br i1 %cmp, label %for.body, label %for.end

for.body:                                         ; preds = %for.cond
  %m_softBodies2 = getelementptr inbounds %class.btDeformableBodySolver, ptr %this1, i32 0, i32 6
  %1 = load i32, ptr %i, align 4
  %call3 = call noundef nonnull align 8 dereferenceable(8) ptr @_ZN20btAlignedObjectArrayIP10btSoftBodyEixEi(ptr noundef nonnull align 8 dereferenceable(25) %m_softBodies2, i32 noundef %1)
  %2 = load ptr, ptr %call3, align 8
  store ptr %2, ptr %rsb, align 8
  %3 = load ptr, ptr %rsb, align 8
  call void @_ZN23btReducedDeformableBody28applyInternalVelocityChangesEv(ptr noundef nonnull align 8 dereferenceable(3176) %3)
  br label %for.inc

for.inc:                                          ; preds = %for.body
  %4 = load i32, ptr %i, align 4
  %inc = add nsw i32 %4, 1
  store i32 %inc, ptr %i, align 4
  br label %for.cond, !llvm.loop !53

for.end:                                          ; preds = %for.cond
  %m_ascendOrder = getelementptr inbounds %class.btReducedDeformableBodySolver, ptr %this1, i32 0, i32 1
  store i8 1, ptr %m_ascendOrder, align 1
  ret void
}