; Function Attrs: mustprogress uwtable
define dso_local void @_ZN29btReducedDeformableBodySolver31deformableBodyInternalWriteBackEv(ptr nocapture noundef nonnull align 8 dereferenceable(736) %this) unnamed_addr #3 align 2 {
entry:
  %m_size.i = getelementptr inbounds i8, ptr %this, i64 156
  %0 = load i32, ptr %m_size.i, align 4
  %cmp3 = icmp sgt i32 %0, 0
  br i1 %cmp3, label %for.body.lr.ph, label %for.end

for.body.lr.ph:                                   ; preds = %entry
  %m_data.i = getelementptr inbounds i8, ptr %this, i64 168
  br label %for.body

for.body:                                         ; preds = %for.body.lr.ph, %for.body
  %indvars.iv = phi i64 [ 0, %for.body.lr.ph ], [ %indvars.iv.next, %for.body ]
  %1 = load ptr, ptr %m_data.i, align 8
  %arrayidx.i = getelementptr inbounds ptr, ptr %1, i64 %indvars.iv
  %2 = load ptr, ptr %arrayidx.i, align 8
  tail call void @_ZN23btReducedDeformableBody28applyInternalVelocityChangesEv(ptr noundef nonnull align 8 dereferenceable(3176) %2)
  %indvars.iv.next = add nuw nsw i64 %indvars.iv, 1
  %3 = load i32, ptr %m_size.i, align 4
  %4 = sext i32 %3 to i64
  %cmp = icmp slt i64 %indvars.iv.next, %4
  br i1 %cmp, label %for.body, label %for.end, !llvm.loop !63

for.end:                                          ; preds = %for.body, %entry
  %m_ascendOrder = getelementptr inbounds i8, ptr %this, i64 609
  store i8 1, ptr %m_ascendOrder, align 1
  ret void
}